; Function Attrs: mustprogress nounwind uwtable
define internal fastcc noundef i32 @_ZNK12_GLOBAL__N_115DiagTextVisitorINS_18DiagTextDocPrinterEE8mapIndexEiRKSt8optionalISt6vectorIiSaIiEEE(ptr readonly captures(none) %.0.val, i32 noundef %0, ptr noundef nonnull readonly align 8 captures(none) dereferenceable(32) %1) unnamed_addr #0 align 2 {
  %3 = alloca %"class.llvm::Twine", align 8
  %4 = alloca %"class.std::__cxx11::basic_string", align 8
  %5 = alloca %"class.std::__cxx11::basic_string", align 8
  %6 = alloca %"class.std::__cxx11::basic_string", align 8
  %7 = alloca %"class.std::__cxx11::basic_string", align 8
  %8 = alloca %"class.std::__cxx11::basic_string", align 8
  %9 = alloca %"class.std::__cxx11::basic_string", align 8
  %10 = getelementptr inbounds nuw i8, ptr %1, i64 24
  %11 = load i8, ptr %10, align 8
  %12 = trunc i8 %11 to i1
  br i1 %12, label %13, label %35

13:                                               ; preds = %2
  %14 = getelementptr inbounds nuw i8, ptr %1, i64 8
  %15 = load ptr, ptr %14, align 8
  %16 = load ptr, ptr %1, align 8
  %17 = ptrtoint ptr %15 to i64
  %18 = ptrtoint ptr %16 to i64
  %19 = sub i64 %17, %18
  %20 = ashr exact i64 %19, 2
  %21 = zext i32 %0 to i64
  %.not = icmp ugt i64 %20, %21
  br i1 %.not, label %31, label %22

22:                                               ; preds = %13
  call void @_ZNSt7__cxx119to_stringEi(ptr dead_on_unwind nonnull writable sret(%"class.std::__cxx11::basic_string") align 8 %8, i32 noundef %0) #19
  call void @_ZStplIcSt11char_traitsIcESaIcEENSt7__cxx1112basic_stringIT_T0_T1_EEPKS5_OS8_(ptr dead_on_unwind nonnull writable sret(%"class.std::__cxx11::basic_string") align 8 %7, ptr noundef nonnull @.str.124, ptr noundef nonnull align 8 dereferenceable(32) %8)
  call void @_ZStplIcSt11char_traitsIcESaIcEENSt7__cxx1112basic_stringIT_T0_T1_EEOS8_PKS5_(ptr dead_on_unwind nonnull writable sret(%"class.std::__cxx11::basic_string") align 8 %6, ptr noundef nonnull align 8 dereferenceable(32) %7, ptr noundef nonnull @.str.125)
  %23 = load ptr, ptr %14, align 8
  %24 = load ptr, ptr %1, align 8
  %25 = ptrtoint ptr %23 to i64
  %26 = ptrtoint ptr %24 to i64
  %27 = sub i64 %25, %26
  %28 = ashr exact i64 %27, 2
  call void @_ZNSt7__cxx119to_stringEm(ptr dead_on_unwind nonnull writable sret(%"class.std::__cxx11::basic_string") align 8 %9, i64 noundef %28)
  call void @_ZStplIcSt11char_traitsIcESaIcEENSt7__cxx1112basic_stringIT_T0_T1_EEOS8_S9_(ptr dead_on_unwind nonnull writable sret(%"class.std::__cxx11::basic_string") align 8 %5, ptr noundef nonnull align 8 dereferenceable(32) %6, ptr noundef nonnull align 8 dereferenceable(32) %9)
  call void @_ZStplIcSt11char_traitsIcESaIcEENSt7__cxx1112basic_stringIT_T0_T1_EEOS8_PKS5_(ptr dead_on_unwind nonnull writable sret(%"class.std::__cxx11::basic_string") align 8 %4, ptr noundef nonnull align 8 dereferenceable(32) %5, ptr noundef nonnull @.str.126)
  %29 = getelementptr inbounds nuw i8, ptr %3, i64 32
  store i8 4, ptr %29, align 8
  %30 = getelementptr inbounds nuw i8, ptr %3, i64 33
  store i8 1, ptr %30, align 1
  store ptr %4, ptr %3, align 8
  %.val = load ptr, ptr %.0.val, align 8
  call fastcc void @_ZNK12_GLOBAL__N_121DiagnosticTextBuilder15PrintFatalErrorERKN4llvm5TwineE(ptr %.val, ptr noundef nonnull align 8 dereferenceable(34) %3) #24
  unreachable

31:                                               ; preds = %13
  %32 = sext i32 %0 to i64
  %33 = getelementptr inbounds i32, ptr %16, i64 %32
  %34 = load i32, ptr %33, align 4
  br label %35

35:                                               ; preds = %2, %31
  %.0 = phi i32 [ %34, %31 ], [ %0, %2 ]
  ret i32 %.0
}